; ModuleID = '11/631.c'
source_filename = "11/631.c"
target datalayout = "e-m:e-p270:32:32-p271:32:32-p272:64:64-i64:64-f80:128-n8:16:32:64-S128"
target triple = "x86_64-pc-linux-gnu"

@__const.main.days = private unnamed_addr constant [15 x i32] [i32 0, i32 31, i32 28, i32 31, i32 30, i32 31, i32 30, i32 31, i32 31, i32 30, i32 31, i32 30, i32 31, i32 30, i32 31], align 16
@.str = private unnamed_addr constant [7 x i8] c"%d%d%d\00", align 1
@.str.1 = private unnamed_addr constant [3 x i8] c"%d\00", align 1

; Function Attrs: noinline nounwind uwtable
define dso_local i32 @main(i32 %0, i8** %1) #0 {
  %3 = alloca i32, align 4
  %4 = alloca i32, align 4
  %5 = alloca i8**, align 8
  %6 = alloca [15 x i32], align 16
  %7 = alloca i32, align 4
  %8 = alloca i32, align 4
  %9 = alloca i32, align 4
  %10 = alloca i32, align 4
  %11 = alloca i32, align 4
  store i32 0, i32* %3, align 4
  store i32 %0, i32* %4, align 4
  store i8** %1, i8*** %5, align 8
  %12 = bitcast [15 x i32]* %6 to i8*
  call void @llvm.memcpy.p0i8.p0i8.i64(i8* align 16 %12, i8* align 16 bitcast ([15 x i32]* @__const.main.days to i8*), i64 60, i1 false)
  %13 = call i32 (i8*, ...) @__isoc99_scanf(i8* getelementptr inbounds ([7 x i8], [7 x i8]* @.str, i64 0, i64 0), i32* %7, i32* %8, i32* %9)
  %14 = load i32, i32* %7, align 4
  %15 = srem i32 %14, 4
  %16 = icmp eq i32 %15, 0
  br i1 %16, label %17, label %21

17:                                               ; preds = %2
  %18 = load i32, i32* %7, align 4
  %19 = srem i32 %18, 100
  %20 = icmp ne i32 %19, 0
  br i1 %20, label %25, label %21

21:                                               ; preds = %17, %2
  %22 = load i32, i32* %7, align 4
  %23 = srem i32 %22, 400
  %24 = icmp eq i32 %23, 0
  br i1 %24, label %25, label %29

25:                                               ; preds = %21, %17
  %26 = getelementptr inbounds [15 x i32], [15 x i32]* %6, i64 0, i64 2
  %27 = load i32, i32* %26, align 8
  %28 = add nsw i32 %27, 1
  store i32 %28, i32* %26, align 8
  br label %29

29:                                               ; preds = %25, %21
  %30 = load i32, i32* %9, align 4
  store i32 %30, i32* %11, align 4
  store i32 1, i32* %10, align 4
  br label %31

31:                                               ; preds = %42, %29
  %32 = load i32, i32* %10, align 4
  %33 = load i32, i32* %8, align 4
  %34 = icmp slt i32 %32, %33
  br i1 %34, label %35, label %45

35:                                               ; preds = %31
  %36 = load i32, i32* %10, align 4
  %37 = sext i32 %36 to i64
  %38 = getelementptr inbounds [15 x i32], [15 x i32]* %6, i64 0, i64 %37
  %39 = load i32, i32* %38, align 4
  %40 = load i32, i32* %11, align 4
  %41 = add nsw i32 %40, %39
  store i32 %41, i32* %11, align 4
  br label %42

42:                                               ; preds = %35
  %43 = load i32, i32* %10, align 4
  %44 = add nsw i32 %43, 1
  store i32 %44, i32* %10, align 4
  br label %31

45:                                               ; preds = %31
  %46 = load i32, i32* %11, align 4
  %47 = call i32 (i8*, ...) @printf(i8* getelementptr inbounds ([3 x i8], [3 x i8]* @.str.1, i64 0, i64 0), i32 %46)
  ret i32 0
}

; Function Attrs: argmemonly nounwind willreturn
declare void @llvm.memcpy.p0i8.p0i8.i64(i8* noalias nocapture writeonly, i8* noalias nocapture readonly, i64, i1 immarg) #1

declare dso_local i32 @__isoc99_scanf(i8*, ...) #2

declare dso_local i32 @printf(i8*, ...) #2


!llvm.module.flags = !{!0}
!llvm.ident = !{!1}

!0 = !{i32 1, !"wchar_size", i32 4}
!1 = !{!"clang version 10.0.0-4ubuntu1 "}
